target datalayout = "e-m:e-p270:32:32-p271:32:32-p272:64:64-i64:64-i128:128-f80:128-n8:16:32:64-S128"
target triple = "x86_64-unknown-linux-gnu"

; Function Attrs: nounwind uwtable
define ptr @stb__strchr(ptr noundef %str, i32 noundef %ch) #0 {
entry:
  %retval = alloca ptr, align 8
  %str.addr = alloca ptr, align 8
  %ch.addr = alloca i32, align 4
  store ptr %str, ptr %str.addr, align 8
  store i32 %ch, ptr %ch.addr, align 4
  br label %for.cond

for.cond:                                         ; preds = %for.inc, %entry
  %0 = load ptr, ptr %str.addr, align 8
  %1 = load i8, ptr %0, align 1
  %tobool = icmp ne i8 %1, 0
  br i1 %tobool, label %for.body, label %for.end

for.body:                                         ; preds = %for.cond
  %2 = load ptr, ptr %str.addr, align 8
  %3 = load i8, ptr %2, align 1
  %conv = sext i8 %3 to i32
  %4 = load i32, ptr %ch.addr, align 4
  %cmp = icmp eq i32 %conv, %4
  br i1 %cmp, label %if.then, label %if.end

if.then:                                          ; preds = %for.body
  %5 = load ptr, ptr %str.addr, align 8
  store ptr %5, ptr %retval, align 8
  br label %return

if.end:                                           ; preds = %for.body
  br label %for.inc

for.inc:                                          ; preds = %if.end
  %6 = load ptr, ptr %str.addr, align 8
  %incdec.ptr = getelementptr inbounds i8, ptr %6, i32 1
  store ptr %incdec.ptr, ptr %str.addr, align 8
  br label %for.cond, !llvm.loop !6

for.end:                                          ; preds = %for.cond
  store ptr null, ptr %retval, align 8
  br label %return

return:                                           ; preds = %for.end, %if.then
  %7 = load ptr, ptr %retval, align 8
  ret ptr %7
}