; Function Attrs: nofree norecurse nosync nounwind memory(argmem: read) uwtable
define noundef ptr @stb__strchr(ptr noundef readonly %str, i32 noundef %ch) local_unnamed_addr #3 {
entry:
  %0 = load i8, ptr %str, align 1
  %tobool.not4 = icmp eq i8 %0, 0
  br i1 %tobool.not4, label %return, label %for.body

for.body:                                         ; preds = %entry, %for.inc
  %1 = phi i8 [ %2, %for.inc ], [ %0, %entry ]
  %str.addr.05 = phi ptr [ %incdec.ptr, %for.inc ], [ %str, %entry ]
  %conv = sext i8 %1 to i32
  %cmp = icmp eq i32 %ch, %conv
  br i1 %cmp, label %return, label %for.inc

for.inc:                                          ; preds = %for.body
  %incdec.ptr = getelementptr inbounds nuw i8, ptr %str.addr.05, i64 1
  %2 = load i8, ptr %incdec.ptr, align 1
  %tobool.not = icmp eq i8 %2, 0
  br i1 %tobool.not, label %return, label %for.body, !llvm.loop !6

return:                                           ; preds = %for.body, %for.inc, %entry
  %retval.0 = phi ptr [ null, %entry ], [ null, %for.inc ], [ %str.addr.05, %for.body ]
  ret ptr %retval.0
}